; Function Attrs: nofree norecurse nosync nounwind memory(argmem: readwrite) uwtable
define internal void @vert_filter(ptr noundef readonly captures(none) %0, ptr noundef writeonly captures(none) %1, ptr noundef writeonly captures(none) %2, i64 noundef %3, i64 noundef %4, i64 noundef %5, i32 noundef %6, i32 noundef %7) #1 {
  %9 = icmp sgt i32 %6, 0
  br i1 %9, label %.lr.ph32, label %._crit_edge

.lr.ph32:                                         ; preds = %8
  %.idx.i = shl nsw i64 %3, 2
  %.idx83.i = mul nsw i64 %3, 6
  %.idx84.i = shl nsw i64 %3, 3
  %.idx85.i = mul nsw i64 %3, 10
  %10 = add nsw i32 %7, -2
  %11 = icmp sgt i32 %7, 4
  %12 = sext i32 %10 to i64
  %13 = mul nsw i64 %3, %12
  %14 = add nsw i32 %7, -1
  %15 = sext i32 %14 to i64
  %16 = mul nsw i64 %3, %15
  %17 = ashr i32 %10, 1
  %18 = sext i32 %17 to i64
  %19 = mul nsw i64 %4, %18
  %20 = add nsw i32 %7, -3
  %21 = sext i32 %20 to i64
  %22 = mul nsw i64 %3, %21
  %23 = add nsw i32 %7, -4
  %24 = sext i32 %23 to i64
  %25 = mul nsw i64 %3, %24
  %26 = add nsw i32 %7, -5
  %27 = sext i32 %26 to i64
  %28 = mul nsw i64 %3, %27
  %29 = add nsw i32 %7, -6
  %30 = sext i32 %29 to i64
  %31 = mul nsw i64 %3, %30
  %32 = mul nsw i64 %5, %18
  %wide.trip.count = zext nneg i32 %6 to i64
  br label %33

._crit_edge:                                      ; preds = %filter.exit, %8
  ret void

33:                                               ; preds = %.lr.ph32, %filter.exit
  %indvars.iv34 = phi i64 [ 0, %.lr.ph32 ], [ %indvars.iv.next35, %filter.exit ]
  %34 = getelementptr inbounds nuw i16, ptr %0, i64 %indvars.iv34
  %35 = getelementptr inbounds nuw i16, ptr %1, i64 %indvars.iv34
  %36 = getelementptr inbounds nuw i16, ptr %2, i64 %indvars.iv34
  %37 = load i16, ptr %34, align 2, !tbaa !10
  %38 = getelementptr inbounds i16, ptr %34, i64 %3
  %39 = load i16, ptr %38, align 2, !tbaa !10
  %40 = tail call i16 @llvm.sadd.sat.i16(i16 %37, i16 %39)
  store i16 %40, ptr %35, align 2, !tbaa !10
  %41 = load i16, ptr %34, align 2, !tbaa !10
  %42 = sext i16 %41 to i32
  %43 = mul nsw i32 %42, 5
  %44 = load i16, ptr %38, align 2, !tbaa !10
  %45 = sext i16 %44 to i32
  %.neg.i = mul nsw i32 %45, -11
  %46 = getelementptr inbounds i8, ptr %34, i64 %.idx.i
  %47 = load i16, ptr %46, align 2, !tbaa !10
  %48 = sext i16 %47 to i32
  %49 = getelementptr inbounds i8, ptr %34, i64 %.idx83.i
  %50 = load i16, ptr %49, align 2, !tbaa !10
  %51 = sext i16 %50 to i32
  %52 = add nsw i32 %51, %48
  %53 = shl nsw i32 %52, 2
  %54 = getelementptr inbounds i8, ptr %34, i64 %.idx84.i
  %55 = load i16, ptr %54, align 2, !tbaa !10
  %56 = sext i16 %55 to i32
  %57 = getelementptr inbounds i8, ptr %34, i64 %.idx85.i
  %58 = load i16, ptr %57, align 2, !tbaa !10
  %59 = sext i16 %58 to i32
  %.neg24 = add nsw i32 %43, 4
  %60 = add nsw i32 %.neg24, %.neg.i
  %61 = add nsw i32 %60, %53
  %62 = add nsw i32 %56, %59
  %63 = sub nsw i32 %61, %62
  %64 = ashr i32 %63, 3
  %65 = tail call i32 @llvm.smax.i32(i32 %64, i32 -32768)
  %66 = tail call i32 @llvm.smin.i32(i32 %65, i32 32767)
  %.0.i20 = trunc nsw i32 %66 to i16
  store i16 %.0.i20, ptr %36, align 2, !tbaa !10
  br i1 %11, label %.lr.ph, label %filter.exit

.lr.ph:                                           ; preds = %33, %.lr.ph
  %indvars.iv = phi i64 [ %indvars.iv.next, %.lr.ph ], [ 2, %33 ]
  %67 = mul nsw i64 %3, %indvars.iv
  %68 = getelementptr inbounds i16, ptr %34, i64 %67
  %69 = load i16, ptr %68, align 2, !tbaa !10
  %70 = or disjoint i64 %indvars.iv, 1
  %71 = mul nsw i64 %3, %70
  %72 = getelementptr inbounds i16, ptr %34, i64 %71
  %73 = load i16, ptr %72, align 2, !tbaa !10
  %74 = tail call i16 @llvm.sadd.sat.i16(i16 %69, i16 %73)
  %75 = lshr exact i64 %indvars.iv, 1
  %76 = mul nsw i64 %4, %75
  %77 = getelementptr inbounds i16, ptr %35, i64 %76
  store i16 %74, ptr %77, align 2, !tbaa !10
  %78 = add nsw i64 %indvars.iv, -2
  %79 = mul nsw i64 %3, %78
  %80 = getelementptr inbounds i16, ptr %34, i64 %79
  %81 = load i16, ptr %80, align 2, !tbaa !10
  %82 = sext i16 %81 to i32
  %83 = add nsw i64 %indvars.iv, -1
  %84 = mul nsw i64 %3, %83
  %85 = getelementptr inbounds i16, ptr %34, i64 %84
  %86 = load i16, ptr %85, align 2, !tbaa !10
  %87 = sext i16 %86 to i32
  %indvars.iv.next = add nuw nsw i64 %indvars.iv, 2
  %88 = mul nsw i64 %3, %indvars.iv.next
  %89 = getelementptr inbounds i16, ptr %34, i64 %88
  %90 = load i16, ptr %89, align 2, !tbaa !10
  %91 = sext i16 %90 to i32
  %92 = add nuw nsw i64 %indvars.iv, 3
  %93 = mul nsw i64 %3, %92
  %94 = getelementptr inbounds i16, ptr %34, i64 %93
  %95 = load i16, ptr %94, align 2, !tbaa !10
  %96 = sext i16 %95 to i32
  %97 = add nsw i32 %82, %87
  %reass.sub = sub nsw i32 %91, %97
  %98 = add nsw i32 %reass.sub, 4
  %99 = add nsw i32 %98, %96
  %100 = ashr i32 %99, 3
  %101 = load i16, ptr %68, align 2, !tbaa !10
  %102 = sext i16 %101 to i32
  %103 = load i16, ptr %72, align 2, !tbaa !10
  %104 = sext i16 %103 to i32
  %105 = sub nsw i32 %102, %104
  %106 = add nsw i32 %105, %100
  %107 = tail call i32 @llvm.smax.i32(i32 %106, i32 -32768)
  %108 = tail call i32 @llvm.smin.i32(i32 %107, i32 32767)
  %.0.i12 = trunc nsw i32 %108 to i16
  %109 = mul nsw i64 %5, %75
  %110 = getelementptr inbounds i16, ptr %36, i64 %109
  store i16 %.0.i12, ptr %110, align 2, !tbaa !10
  %111 = icmp slt i64 %indvars.iv.next, %12
  br i1 %111, label %.lr.ph, label %filter.exit, !llvm.loop !12

filter.exit:                                      ; preds = %.lr.ph, %33
  %112 = getelementptr inbounds i16, ptr %34, i64 %13
  %113 = load i16, ptr %112, align 2, !tbaa !10
  %114 = getelementptr inbounds i16, ptr %34, i64 %16
  %115 = load i16, ptr %114, align 2, !tbaa !10
  %116 = tail call i16 @llvm.sadd.sat.i16(i16 %113, i16 %115)
  %117 = getelementptr inbounds i16, ptr %35, i64 %19
  store i16 %116, ptr %117, align 2, !tbaa !10
  %118 = load i16, ptr %112, align 2, !tbaa !10
  %119 = sext i16 %118 to i32
  %120 = mul nsw i32 %119, 11
  %121 = load i16, ptr %114, align 2, !tbaa !10
  %122 = sext i16 %121 to i32
  %.neg86.i = mul nsw i32 %122, -5
  %123 = getelementptr inbounds i16, ptr %34, i64 %22
  %124 = load i16, ptr %123, align 2, !tbaa !10
  %125 = sext i16 %124 to i32
  %126 = getelementptr inbounds i16, ptr %34, i64 %25
  %127 = load i16, ptr %126, align 2, !tbaa !10
  %128 = sext i16 %127 to i32
  %129 = add nsw i32 %128, %125
  %130 = getelementptr inbounds i16, ptr %34, i64 %28
  %131 = load i16, ptr %130, align 2, !tbaa !10
  %132 = sext i16 %131 to i32
  %133 = getelementptr inbounds i16, ptr %34, i64 %31
  %134 = load i16, ptr %133, align 2, !tbaa !10
  %135 = sext i16 %134 to i32
  %136 = add nsw i32 %120, 4
  %137 = add nsw i32 %136, %.neg86.i
  %138 = add nsw i32 %137, %132
  %139 = shl nsw i32 %129, 2
  %140 = sub nsw i32 %138, %139
  %141 = add nsw i32 %140, %135
  %142 = ashr i32 %141, 3
  %143 = tail call i32 @llvm.smax.i32(i32 %142, i32 -32768)
  %144 = tail call i32 @llvm.smin.i32(i32 %143, i32 32767)
  %.0.i16 = trunc nsw i32 %144 to i16
  %145 = getelementptr inbounds i16, ptr %36, i64 %32
  store i16 %.0.i16, ptr %145, align 2, !tbaa !10
  %indvars.iv.next35 = add nuw nsw i64 %indvars.iv34, 1
  %exitcond.not = icmp eq i64 %indvars.iv.next35, %wide.trip.count
  br i1 %exitcond.not, label %._crit_edge, label %33, !llvm.loop !15
}